; Function Attrs: mustprogress uwtable
define noundef ptr @_ZNK7rocksdb17PlainTableBuilder23GetFileChecksumFuncNameEv(ptr nocapture noundef nonnull readonly align 16 dereferenceable(3288) %this) unnamed_addr #3 align 2 {
entry:
  %file_ = getelementptr inbounds i8, ptr %this, i64 2376
  %0 = load ptr, ptr %file_, align 8
  %cmp.not = icmp eq ptr %0, null
  br i1 %cmp.not, label %return, label %if.then

if.then:                                          ; preds = %entry
  %call = tail call noundef ptr @_ZNK7rocksdb18WritableFileWriter23GetFileChecksumFuncNameEv(ptr noundef nonnull align 8 dereferenceable(218) %0)
  br label %return

return:                                           ; preds = %entry, %if.then
  %retval.0 = phi ptr [ %call, %if.then ], [ @_ZN7rocksdbL28kUnknownFileChecksumFuncNameE, %entry ]
  ret ptr %retval.0
}